target datalayout = "e-m:e-p270:32:32-p271:32:32-p272:64:64-i64:64-i128:128-f80:128-n8:16:32:64-S128"
target triple = "x86_64-pc-linux-gnu"

; Function Attrs: nounwind uwtable
define internal void @gather_float_2(ptr noundef %0, ptr noundef %1, i64 noundef %2, i64 noundef %3) #0 {
  %5 = alloca ptr, align 8
  %6 = alloca ptr, align 8
  %7 = alloca i64, align 8
  %8 = alloca i64, align 8
  %9 = alloca i32, align 4
  %10 = alloca i32, align 4
  store ptr %0, ptr %5, align 8, !tbaa !8
  store ptr %1, ptr %6, align 8, !tbaa !8
  store i64 %2, ptr %7, align 8, !tbaa !25
  store i64 %3, ptr %8, align 8, !tbaa !25
  call void @llvm.lifetime.start.p0(i64 4, ptr %9) #7
  call void @llvm.lifetime.start.p0(i64 4, ptr %10) #7
  store i32 0, ptr %10, align 4, !tbaa !15
  br label %11

11:                                               ; preds = %30, %4
  %12 = load i32, ptr %10, align 4, !tbaa !15
  %13 = icmp ult i32 %12, 4
  br i1 %13, label %14, label %39

14:                                               ; preds = %11
  store i32 0, ptr %9, align 4, !tbaa !15
  br label %15

15:                                               ; preds = %23, %14
  %16 = load i32, ptr %9, align 4, !tbaa !15
  %17 = icmp ult i32 %16, 4
  br i1 %17, label %18, label %29

18:                                               ; preds = %15
  %19 = load ptr, ptr %6, align 8, !tbaa !8
  %20 = load float, ptr %19, align 4, !tbaa !20
  %21 = load ptr, ptr %5, align 8, !tbaa !8
  %22 = getelementptr inbounds nuw float, ptr %21, i32 1
  store ptr %22, ptr %5, align 8, !tbaa !8
  store float %20, ptr %21, align 4, !tbaa !20
  br label %23

23:                                               ; preds = %18
  %24 = load i32, ptr %9, align 4, !tbaa !15
  %25 = add i32 %24, 1
  store i32 %25, ptr %9, align 4, !tbaa !15
  %26 = load i64, ptr %7, align 8, !tbaa !25
  %27 = load ptr, ptr %6, align 8, !tbaa !8
  %28 = getelementptr inbounds float, ptr %27, i64 %26
  store ptr %28, ptr %6, align 8, !tbaa !8
  br label %15

29:                                               ; preds = %15
  br label %30

30:                                               ; preds = %29
  %31 = load i32, ptr %10, align 4, !tbaa !15
  %32 = add i32 %31, 1
  store i32 %32, ptr %10, align 4, !tbaa !15
  %33 = load i64, ptr %8, align 8, !tbaa !25
  %34 = load i64, ptr %7, align 8, !tbaa !25
  %35 = mul nsw i64 4, %34
  %36 = sub nsw i64 %33, %35
  %37 = load ptr, ptr %6, align 8, !tbaa !8
  %38 = getelementptr inbounds float, ptr %37, i64 %36
  store ptr %38, ptr %6, align 8, !tbaa !8
  br label %11

39:                                               ; preds = %11
  call void @llvm.lifetime.end.p0(i64 4, ptr %10) #7
  call void @llvm.lifetime.end.p0(i64 4, ptr %9) #7
  ret void
}

; Function Attrs: nounwind uwtable
define i64 @zfp_encode_block_strided_float_2(ptr noundef %0, ptr noundef %1, i64 noundef %2, i64 noundef %3) #0 {
  %5 = alloca ptr, align 8
  %6 = alloca ptr, align 8
  %7 = alloca i64, align 8
  %8 = alloca i64, align 8
  %9 = alloca [16 x float], align 256
  store ptr %0, ptr %5, align 8, !tbaa !4
  store ptr %1, ptr %6, align 8, !tbaa !8
  store i64 %2, ptr %7, align 8, !tbaa !25
  store i64 %3, ptr %8, align 8, !tbaa !25
  call void @llvm.lifetime.start.p0(i64 64, ptr %9) #7
  %10 = getelementptr inbounds [16 x float], ptr %9, i64 0, i64 0
  %11 = load ptr, ptr %6, align 8, !tbaa !8
  %12 = load i64, ptr %7, align 8, !tbaa !25
  %13 = load i64, ptr %8, align 8, !tbaa !25
  call void @gather_float_2(ptr noundef %10, ptr noundef %11, i64 noundef %12, i64 noundef %13)
  %14 = load ptr, ptr %5, align 8, !tbaa !4
  %15 = getelementptr inbounds [16 x float], ptr %9, i64 0, i64 0
  %16 = call i64 @zfp_encode_block_float_2(ptr noundef %14, ptr noundef %15)
  call void @llvm.lifetime.end.p0(i64 64, ptr %9) #7
  ret i64 %16
}